; Function Attrs: mustprogress uwtable
define void @_ZNK6icu_778numparse4impl16NumberParserImpl5parseERKNS_13UnicodeStringEibRNS1_12ParsedNumberER10UErrorCode(ptr noundef nonnull readonly align 8 captures(none) dereferenceable(5216) %0, ptr noundef nonnull align 8 dereferenceable(64) %1, i32 noundef %2, i1 noundef zeroext %3, ptr noundef nonnull align 8 dereferenceable(216) %4, ptr noundef nonnull align 4 dereferenceable(4) %5) local_unnamed_addr #1 align 2 {
  %7 = alloca %"class.icu_77::StringSegment", align 8
  %8 = load i32, ptr %5, align 4, !tbaa !13
  %9 = icmp slt i32 %8, 1
  br i1 %9, label %10, label %64

10:                                               ; preds = %6
  call void @llvm.lifetime.start.p0(i64 24, ptr nonnull %7) #19
  %11 = getelementptr inbounds nuw i8, ptr %0, i64 8
  %12 = load i32, ptr %11, align 8, !tbaa !176
  %13 = and i32 %12, 1
  %14 = icmp ne i32 %13, 0
  call void @_ZN6icu_7713StringSegmentC1ERKNS_13UnicodeStringEb(ptr noundef nonnull align 8 dereferenceable(17) %7, ptr noundef nonnull align 8 dereferenceable(64) %1, i1 noundef zeroext %14)
  call void @_ZN6icu_7713StringSegment12adjustOffsetEi(ptr noundef nonnull align 8 dereferenceable(17) %7, i32 noundef %2)
  br i1 %3, label %15, label %_ZNK6icu_778numparse4impl16NumberParserImpl11parseGreedyERNS_13StringSegmentERNS1_12ParsedNumberER10UErrorCode.exit.sink.split

15:                                               ; preds = %10
  %16 = getelementptr inbounds nuw i8, ptr %0, i64 12
  %17 = load i32, ptr %16, align 4, !tbaa !177
  %18 = icmp sgt i32 %17, 0
  br i1 %18, label %.lr.ph.i, label %_ZNK6icu_778numparse4impl16NumberParserImpl11parseGreedyERNS_13StringSegmentERNS1_12ParsedNumberER10UErrorCode.exit

.lr.ph.i:                                         ; preds = %15
  %19 = getelementptr inbounds nuw i8, ptr %0, i64 16
  br label %20

20:                                               ; preds = %45, %.lr.ph.i
  %.021.i = phi i32 [ 0, %.lr.ph.i ], [ %.1.i, %45 ]
  %21 = call noundef i32 @_ZNK6icu_7713StringSegment6lengthEv(ptr noundef nonnull align 8 dereferenceable(17) %7)
  %22 = icmp eq i32 %21, 0
  br i1 %22, label %_ZNK6icu_778numparse4impl16NumberParserImpl11parseGreedyERNS_13StringSegmentERNS1_12ParsedNumberER10UErrorCode.exit, label %23

23:                                               ; preds = %20
  %24 = sext i32 %.021.i to i64
  %25 = load ptr, ptr %19, align 8, !tbaa !178
  %26 = getelementptr inbounds ptr, ptr %25, i64 %24
  %27 = load ptr, ptr %26, align 8, !tbaa !185
  %28 = load ptr, ptr %27, align 8, !tbaa !22
  %29 = getelementptr inbounds nuw i8, ptr %28, i64 32
  %30 = load ptr, ptr %29, align 8
  %31 = call noundef zeroext i1 %30(ptr noundef nonnull align 8 dereferenceable(8) %27, ptr noundef nonnull align 8 dereferenceable(17) %7)
  br i1 %31, label %34, label %32

32:                                               ; preds = %23
  %33 = add nsw i32 %.021.i, 1
  br label %45, !llvm.loop !187

34:                                               ; preds = %23
  %35 = call noundef i32 @_ZNK6icu_7713StringSegment9getOffsetEv(ptr noundef nonnull align 8 dereferenceable(17) %7)
  %36 = load ptr, ptr %27, align 8, !tbaa !22
  %37 = getelementptr inbounds nuw i8, ptr %36, i64 24
  %38 = load ptr, ptr %37, align 8
  %39 = call noundef zeroext i1 %38(ptr noundef nonnull align 8 dereferenceable(8) %27, ptr noundef nonnull align 8 dereferenceable(17) %7, ptr noundef nonnull align 8 dereferenceable(216) %4, ptr noundef nonnull align 4 dereferenceable(4) %5)
  %40 = load i32, ptr %5, align 4, !tbaa !13
  %41 = icmp slt i32 %40, 1
  br i1 %41, label %42, label %_ZNK6icu_778numparse4impl16NumberParserImpl11parseGreedyERNS_13StringSegmentERNS1_12ParsedNumberER10UErrorCode.exit

42:                                               ; preds = %34
  %43 = call noundef i32 @_ZNK6icu_7713StringSegment9getOffsetEv(ptr noundef nonnull align 8 dereferenceable(17) %7)
  %.not18.i = icmp eq i32 %43, %35
  %44 = add nsw i32 %.021.i, 1
  %spec.select.i = select i1 %.not18.i, i32 %44, i32 0
  br label %45, !llvm.loop !187

45:                                               ; preds = %42, %32
  %.1.i = phi i32 [ %33, %32 ], [ %spec.select.i, %42 ]
  %46 = load i32, ptr %16, align 4, !tbaa !177
  %47 = icmp slt i32 %.1.i, %46
  br i1 %47, label %20, label %_ZNK6icu_778numparse4impl16NumberParserImpl11parseGreedyERNS_13StringSegmentERNS1_12ParsedNumberER10UErrorCode.exit

_ZNK6icu_778numparse4impl16NumberParserImpl11parseGreedyERNS_13StringSegmentERNS1_12ParsedNumberER10UErrorCode.exit.sink.split: ; preds = %10
  %48 = load i32, ptr %11, align 8, !tbaa !176
  %49 = and i32 %48, 16384
  %.not15 = icmp eq i32 %49, 0
  %. = select i1 %.not15, i32 -100, i32 1
  call void @_ZNK6icu_778numparse4impl16NumberParserImpl21parseLongestRecursiveERNS_13StringSegmentERNS1_12ParsedNumberEiR10UErrorCode(ptr noundef nonnull align 8 dereferenceable(5216) %0, ptr noundef nonnull align 8 dereferenceable(17) %7, ptr noundef nonnull align 8 dereferenceable(216) %4, i32 noundef %., ptr noundef nonnull align 4 dereferenceable(4) %5)
  br label %_ZNK6icu_778numparse4impl16NumberParserImpl11parseGreedyERNS_13StringSegmentERNS1_12ParsedNumberER10UErrorCode.exit

_ZNK6icu_778numparse4impl16NumberParserImpl11parseGreedyERNS_13StringSegmentERNS1_12ParsedNumberER10UErrorCode.exit: ; preds = %45, %34, %20, %_ZNK6icu_778numparse4impl16NumberParserImpl11parseGreedyERNS_13StringSegmentERNS1_12ParsedNumberER10UErrorCode.exit.sink.split, %15
  %50 = getelementptr inbounds nuw i8, ptr %0, i64 12
  %51 = load i32, ptr %50, align 4, !tbaa !177
  %52 = icmp sgt i32 %51, 0
  br i1 %52, label %.lr.ph, label %._crit_edge

.lr.ph:                                           ; preds = %_ZNK6icu_778numparse4impl16NumberParserImpl11parseGreedyERNS_13StringSegmentERNS1_12ParsedNumberER10UErrorCode.exit
  %53 = getelementptr inbounds nuw i8, ptr %0, i64 16
  br label %54

._crit_edge:                                      ; preds = %54, %_ZNK6icu_778numparse4impl16NumberParserImpl11parseGreedyERNS_13StringSegmentERNS1_12ParsedNumberER10UErrorCode.exit
  call void @_ZN6icu_778numparse4impl12ParsedNumber11postProcessEv(ptr noundef nonnull align 8 dereferenceable(216) %4)
  call void @llvm.lifetime.end.p0(i64 24, ptr nonnull %7) #19
  br label %64

54:                                               ; preds = %.lr.ph, %54
  %indvars.iv = phi i64 [ 0, %.lr.ph ], [ %indvars.iv.next, %54 ]
  %55 = load ptr, ptr %53, align 8, !tbaa !178
  %56 = getelementptr inbounds nuw ptr, ptr %55, i64 %indvars.iv
  %57 = load ptr, ptr %56, align 8, !tbaa !185
  %58 = load ptr, ptr %57, align 8, !tbaa !22
  %59 = getelementptr inbounds nuw i8, ptr %58, i64 40
  %60 = load ptr, ptr %59, align 8
  call void %60(ptr noundef nonnull align 8 dereferenceable(8) %57, ptr noundef nonnull align 8 dereferenceable(216) %4)
  %indvars.iv.next = add nuw nsw i64 %indvars.iv, 1
  %61 = load i32, ptr %50, align 4, !tbaa !177
  %62 = sext i32 %61 to i64
  %63 = icmp slt i64 %indvars.iv.next, %62
  br i1 %63, label %54, label %._crit_edge, !llvm.loop !188

64:                                               ; preds = %6, %._crit_edge
  ret void
}